; Function Attrs: mustprogress uwtable
define hidden noundef ptr @_ZN7bv_util7mk_sortEj(ptr noundef nonnull readonly align 8 captures(none) dereferenceable(24) %0, i32 noundef %1) local_unnamed_addr #3 align 2 personality ptr @__gxx_personality_v0 {
  %3 = alloca %class.parameter, align 8
  call void @llvm.lifetime.start.p0(i64 16, ptr nonnull %3) #24
  store i32 %1, ptr %3, align 8, !tbaa !115
  %4 = getelementptr inbounds nuw i8, ptr %3, i64 8
  store i8 0, ptr %4, align 8, !tbaa !117
  %5 = getelementptr inbounds nuw i8, ptr %0, i64 8
  %6 = load ptr, ptr %5, align 8, !tbaa !185
  %7 = load i32, ptr %0, align 8, !tbaa !179
  %8 = invoke noundef ptr @_ZN11ast_manager7mk_sortEiijPK9parameter(ptr noundef nonnull align 8 dereferenceable(976) %6, i32 noundef %7, i32 noundef 0, i32 noundef 1, ptr noundef nonnull %3)
          to label %9 unwind label %10

9:                                                ; preds = %2
  call void @_ZN9parameterD1Ev(ptr noundef nonnull align 8 dereferenceable(16) %3) #24
  call void @llvm.lifetime.end.p0(i64 16, ptr nonnull %3) #24
  ret ptr %8

10:                                               ; preds = %2
  %11 = landingpad { ptr, i32 }
          cleanup
  call void @_ZN9parameterD1Ev(ptr noundef nonnull align 8 dereferenceable(16) %3) #24
  call void @llvm.lifetime.end.p0(i64 16, ptr nonnull %3) #24
  resume { ptr, i32 } %11
}